; Function Attrs: nounwind uwtable
define noalias noundef nonnull ptr @l_Lean_Compiler_LCNF_JoinPointContextExtender_extend_go___lambda__1(ptr noundef readnone captures(address) %0, ptr noundef %1, ptr noundef readnone captures(address) %2, ptr noundef %3, ptr noundef %4, ptr readnone captures(none) %5, ptr readnone captures(none) %6, ptr readnone captures(none) %7, ptr readnone captures(none) %8, ptr readnone captures(none) %9, ptr readnone captures(none) %10, ptr readnone captures(none) %11, ptr noundef %12) local_unnamed_addr #1 {
  %14 = ptrtoint ptr %4 to i64
  %.not = icmp eq ptr %0, %4
  br i1 %.not, label %34, label %15

15:                                               ; preds = %13
  %16 = ptrtoint ptr %3 to i64
  %17 = and i64 %16, 1
  %.not54 = icmp eq i64 %17, 0
  br i1 %.not54, label %18, label %lean_dec.exit39

18:                                               ; preds = %15
  %19 = load i32, ptr %3, align 4, !tbaa !8
  %20 = icmp sgt i32 %19, 1
  br i1 %20, label %21, label %23, !prof !11

21:                                               ; preds = %18
  %22 = add nsw i32 %19, -1
  store i32 %22, ptr %3, align 4, !tbaa !8
  br label %lean_dec.exit39

23:                                               ; preds = %18
  %.not.i = icmp eq i32 %19, 0
  br i1 %.not.i, label %lean_dec.exit39, label %24

24:                                               ; preds = %23
  tail call void @lean_dec_ref_cold(ptr noundef nonnull %3) #5
  br label %lean_dec.exit39

lean_dec.exit39:                                  ; preds = %24, %23, %21, %15
  tail call void @lean_inc_heartbeat() #5
  %25 = tail call noalias ptr @mi_malloc_small(i64 noundef 24) #5
  %26 = icmp eq ptr %25, null
  br i1 %26, label %27, label %lean_alloc_ctor.exit

27:                                               ; preds = %lean_dec.exit39
  tail call void @lean_internal_panic_out_of_memory() #6
  unreachable

lean_alloc_ctor.exit:                             ; preds = %lean_dec.exit39
  %28 = getelementptr inbounds nuw i8, ptr %25, i64 4
  store i32 1, ptr %25, align 4, !tbaa !8
  store i32 131096, ptr %28, align 4
  %29 = getelementptr inbounds nuw i8, ptr %25, i64 8
  store ptr %1, ptr %29, align 8, !tbaa !4
  %30 = getelementptr inbounds nuw i8, ptr %25, i64 16
  store ptr %4, ptr %30, align 8, !tbaa !4
  tail call void @lean_inc_heartbeat() #5
  %31 = tail call noalias ptr @mi_malloc_small(i64 noundef 24) #5
  %32 = icmp eq ptr %31, null
  br i1 %32, label %33, label %lean_alloc_ctor.exit46

33:                                               ; preds = %lean_alloc_ctor.exit
  tail call void @lean_internal_panic_out_of_memory() #6
  unreachable

34:                                               ; preds = %13
  %35 = ptrtoint ptr %1 to i64
  %.not50 = icmp eq ptr %2, %1
  br i1 %.not50, label %55, label %36

36:                                               ; preds = %34
  %37 = ptrtoint ptr %3 to i64
  %38 = and i64 %37, 1
  %.not53 = icmp eq i64 %38, 0
  br i1 %.not53, label %39, label %lean_dec.exit38

39:                                               ; preds = %36
  %40 = load i32, ptr %3, align 4, !tbaa !8
  %41 = icmp sgt i32 %40, 1
  br i1 %41, label %42, label %44, !prof !11

42:                                               ; preds = %39
  %43 = add nsw i32 %40, -1
  store i32 %43, ptr %3, align 4, !tbaa !8
  br label %lean_dec.exit38

44:                                               ; preds = %39
  %.not.i40 = icmp eq i32 %40, 0
  br i1 %.not.i40, label %lean_dec.exit38, label %45

45:                                               ; preds = %44
  tail call void @lean_dec_ref_cold(ptr noundef nonnull %3) #5
  br label %lean_dec.exit38

lean_dec.exit38:                                  ; preds = %45, %44, %42, %36
  tail call void @lean_inc_heartbeat() #5
  %46 = tail call noalias ptr @mi_malloc_small(i64 noundef 24) #5
  %47 = icmp eq ptr %46, null
  br i1 %47, label %48, label %lean_alloc_ctor.exit47

48:                                               ; preds = %lean_dec.exit38
  tail call void @lean_internal_panic_out_of_memory() #6
  unreachable

lean_alloc_ctor.exit47:                           ; preds = %lean_dec.exit38
  %49 = getelementptr inbounds nuw i8, ptr %46, i64 4
  store i32 1, ptr %46, align 4, !tbaa !8
  store i32 131096, ptr %49, align 4
  %50 = getelementptr inbounds nuw i8, ptr %46, i64 8
  store ptr %1, ptr %50, align 8, !tbaa !4
  %51 = getelementptr inbounds nuw i8, ptr %46, i64 16
  store ptr %4, ptr %51, align 8, !tbaa !4
  tail call void @lean_inc_heartbeat() #5
  %52 = tail call noalias ptr @mi_malloc_small(i64 noundef 24) #5
  %53 = icmp eq ptr %52, null
  br i1 %53, label %54, label %lean_alloc_ctor.exit46

54:                                               ; preds = %lean_alloc_ctor.exit47
  tail call void @lean_internal_panic_out_of_memory() #6
  unreachable

55:                                               ; preds = %34
  %56 = and i64 %14, 1
  %.not51 = icmp eq i64 %56, 0
  br i1 %.not51, label %57, label %lean_dec.exit37

57:                                               ; preds = %55
  %58 = load i32, ptr %4, align 4, !tbaa !8
  %59 = icmp sgt i32 %58, 1
  br i1 %59, label %60, label %62, !prof !11

60:                                               ; preds = %57
  %61 = add nsw i32 %58, -1
  store i32 %61, ptr %4, align 4, !tbaa !8
  br label %lean_dec.exit37

62:                                               ; preds = %57
  %.not.i42 = icmp eq i32 %58, 0
  br i1 %.not.i42, label %lean_dec.exit37, label %63

63:                                               ; preds = %62
  tail call void @lean_dec_ref_cold(ptr noundef nonnull %4) #5
  br label %lean_dec.exit37

lean_dec.exit37:                                  ; preds = %63, %62, %60, %55
  %64 = and i64 %35, 1
  %.not52 = icmp eq i64 %64, 0
  br i1 %.not52, label %65, label %lean_dec.exit

65:                                               ; preds = %lean_dec.exit37
  %66 = load i32, ptr %1, align 4, !tbaa !8
  %67 = icmp sgt i32 %66, 1
  br i1 %67, label %68, label %70, !prof !11

68:                                               ; preds = %65
  %69 = add nsw i32 %66, -1
  store i32 %69, ptr %1, align 4, !tbaa !8
  br label %lean_dec.exit

70:                                               ; preds = %65
  %.not.i44 = icmp eq i32 %66, 0
  br i1 %.not.i44, label %lean_dec.exit, label %71

71:                                               ; preds = %70
  tail call void @lean_dec_ref_cold(ptr noundef nonnull %1) #5
  br label %lean_dec.exit

lean_dec.exit:                                    ; preds = %71, %70, %68, %lean_dec.exit37
  tail call void @lean_inc_heartbeat() #5
  %72 = tail call noalias ptr @mi_malloc_small(i64 noundef 24) #5
  %73 = icmp eq ptr %72, null
  br i1 %73, label %74, label %lean_alloc_ctor.exit46

74:                                               ; preds = %lean_dec.exit
  tail call void @lean_internal_panic_out_of_memory() #6
  unreachable

lean_alloc_ctor.exit46:                           ; preds = %lean_dec.exit, %lean_alloc_ctor.exit47, %lean_alloc_ctor.exit
  %.sink60 = phi ptr [ %31, %lean_alloc_ctor.exit ], [ %52, %lean_alloc_ctor.exit47 ], [ %72, %lean_dec.exit ]
  %.sink = phi ptr [ %25, %lean_alloc_ctor.exit ], [ %46, %lean_alloc_ctor.exit47 ], [ %3, %lean_dec.exit ]
  %75 = getelementptr inbounds nuw i8, ptr %.sink60, i64 4
  store i32 1, ptr %.sink60, align 4, !tbaa !8
  store i32 131096, ptr %75, align 4
  %76 = getelementptr inbounds nuw i8, ptr %.sink60, i64 8
  store ptr %.sink, ptr %76, align 8, !tbaa !4
  %77 = getelementptr inbounds nuw i8, ptr %.sink60, i64 16
  store ptr %12, ptr %77, align 8, !tbaa !4
  ret ptr %.sink60
}